; Function Attrs: uwtable
define void @_ZTv0_n40_N5arrow2io20TransformInputStream4ReadEl(ptr noalias sret(%"class.arrow::Result") align 8 %agg.result, ptr noundef %this, i64 noundef %nbytes) unnamed_addr #6 align 2 {
entry:
  %0 = load ptr, ptr %this, align 8
  %1 = getelementptr inbounds i8, ptr %0, i64 -40
  %2 = load i64, ptr %1, align 8
  %3 = getelementptr inbounds i8, ptr %this, i64 %2
  tail call void @_ZN5arrow2io20TransformInputStream4ReadEl(ptr sret(%"class.arrow::Result") align 8 %agg.result, ptr noundef nonnull align 8 dereferenceable(16) %3, i64 noundef %nbytes)
  ret void
}